target datalayout = "e-m:e-p270:32:32-p271:32:32-p272:64:64-i64:64-i128:128-f80:128-n8:16:32:64-S128"
target triple = "x86_64-pc-linux-gnu"

%struct.slurm_conf_t = type { i64, ptr, i16, ptr, ptr, ptr, ptr, ptr, i16, ptr, ptr, ptr, ptr, ptr, ptr, ptr, i16, ptr, ptr, ptr, ptr, i16, ptr, ptr, ptr, i64, ptr, ptr, ptr, ptr, i16, ptr, ptr, i16, i32, ptr, i32, ptr, i32, i32, ptr, ptr, i64, i64, ptr, i16, i16, ptr, i32, i32, ptr, i32, ptr, i32, i16, i16, i16, ptr, i16, i16, ptr, ptr, i32, i16, i16, ptr, i32, i16, ptr, ptr, ptr, ptr, i16, ptr, ptr, ptr, ptr, i32, ptr, ptr, ptr, ptr, i16, i16, ptr, i32, i32, i32, i16, i16, ptr, ptr, i16, ptr, ptr, i32, i32, i32, i32, i32, i64, i32, i32, i16, ptr, ptr, i32, ptr, ptr, ptr, i16, i32, ptr, ptr, i16, ptr, ptr, i32, i16, ptr, ptr, ptr, ptr, i32, i32, i16, i16, i32, ptr, i16, ptr, i32, i32, i32, i32, i32, i32, ptr, i16, ptr, ptr, i32, i16, ptr, i32, i16, i16, ptr, ptr, ptr, i16, ptr, ptr, ptr, ptr, i16, i16, ptr, i16, ptr, i16, ptr, i16, ptr, i16, ptr, ptr, ptr, ptr, i16, ptr, ptr, ptr, i32, ptr, i32, ptr, ptr, i16, ptr, ptr, i32, i16, ptr, ptr, i16, i16, ptr, i16, ptr, ptr, ptr, i32, ptr, i16, i16, ptr, ptr, ptr, ptr, ptr, ptr, ptr, ptr, i16, i32, i16, ptr, ptr, ptr, ptr, i32, ptr, ptr, ptr, i16, ptr, ptr, ptr, i16, ptr, i16, ptr, i16, i16, ptr }
%union.pthread_mutex_t = type { %struct.__pthread_mutex_s }
%struct.__pthread_mutex_s = type { i32, i32, i32, i32, i32, i16, i16, %struct.__pthread_internal_list }
%struct.__pthread_internal_list = type { ptr, ptr }
%struct.job_record = type { i32, ptr, ptr, ptr, ptr, i16, i32, i32, i32, ptr, i32, ptr, ptr, i16, ptr, double, i64, ptr, ptr, ptr, ptr, ptr, ptr, i32, ptr, i32, i64, i64, i32, i32, ptr, i16, i64, i64, i8, i32, ptr, ptr, ptr, ptr, ptr, ptr, ptr, ptr, i32, ptr, ptr, i32, ptr, i32, ptr, i32, ptr, i32, ptr, ptr, ptr, ptr, ptr, ptr, i32, i16, i64, ptr, ptr, ptr, ptr, %struct.acct_policy_limit_set_t, i16, ptr, ptr, ptr, ptr, ptr, i32, ptr, ptr, ptr, ptr, ptr, i32, i32, ptr, ptr, ptr, i16, ptr, ptr, i8, ptr, ptr, i64, i64, i8, i32, i32, i8, i32, ptr, i32, i64, i32, ptr, ptr, ptr, i8, i16, i64, i32, ptr, ptr, ptr, ptr, ptr, i16, i32, ptr, ptr, ptr, ptr, i32, ptr, i32, i16, i64, ptr, i32, i32, ptr, i64, ptr, ptr, i64, i32, i32, i64, i32, i32, ptr, ptr, ptr, ptr, ptr, ptr, ptr, ptr, ptr, ptr, ptr, ptr, i32, ptr, i16, i16, i16, i16, ptr, i32, i32, i8, i64 }
%struct.acct_policy_limit_set_t = type { i16, i16, ptr }
%struct.job_array_struct = type { i32, ptr, ptr, i32, i32, i32, i32, i32, i32, i32 }
%struct.slurmdb_cluster_rec = type { ptr, i16, i64, %struct.sockaddr_storage, ptr, i32, i16, ptr, i16, %struct.slurmdb_cluster_fed_t, i32, %union.pthread_mutex_t, ptr, ptr, ptr, i16, ptr, ptr }
%struct.sockaddr_storage = type { i16, [118 x i8], i64 }
%struct.slurmdb_cluster_fed_t = type { ptr, i32, ptr, ptr, ptr, i32, i8, i8 }
%struct.persist_conn_t = type { ptr, i32, i32, i8, ptr, ptr, ptr, i64, i16, i32, i16, i8, i32, i32, ptr, i16, ptr, i64, i32, ptr, %struct.slurm_trigger_callbacks_t, i16 }
%struct.slurm_trigger_callbacks_t = type { ptr, ptr, ptr, ptr, ptr }

@slurm_conf = external global %struct.slurm_conf_t, align 8
@fed_mgr_fed_rec = external global ptr, align 8
@.str.477 = private unnamed_addr constant [30 x i8] c"%pJ still has %d active steps\00", align 1
@.str.478 = private unnamed_addr constant [216 x i8] c"Force purge of %pJ. It ended over 30 days ago, the slurmctld thinks there are still steps running but they are most likely bogus. In any case you might want to check nodes %s to make sure nothing remains of the job.\00", align 1

; Function Attrs: nounwind uwtable
define internal i32 @_list_find_job_old(ptr noundef %0, ptr noundef %1) #0 {
  %3 = alloca i32, align 4
  %4 = alloca ptr, align 8
  %5 = alloca ptr, align 8
  %6 = alloca i64, align 8
  %7 = alloca i64, align 8
  %8 = alloca i64, align 8
  %9 = alloca ptr, align 8
  %10 = alloca i32, align 4
  %11 = alloca i32, align 4
  %12 = alloca ptr, align 8
  store ptr %0, ptr %4, align 8
  store ptr %1, ptr %5, align 8
  call void @llvm.lifetime.start.p0(i64 8, ptr %6) #13
  call void @llvm.lifetime.start.p0(i64 8, ptr %7) #13
  call void @llvm.lifetime.start.p0(i64 8, ptr %8) #13
  %13 = call i64 @time(ptr noundef null) #13
  store i64 %13, ptr %8, align 8
  call void @llvm.lifetime.start.p0(i64 8, ptr %9) #13
  %14 = load ptr, ptr %4, align 8
  store ptr %14, ptr %9, align 8
  %15 = load ptr, ptr %9, align 8
  %16 = getelementptr inbounds nuw %struct.job_record, ptr %15, i32 0, i32 53
  %17 = load i32, ptr %16, align 8
  %18 = icmp eq i32 %17, -2
  br i1 %18, label %19, label %27

19:                                               ; preds = %2
  %20 = load ptr, ptr %9, align 8
  %21 = getelementptr inbounds nuw %struct.job_record, ptr %20, i32 0, i32 60
  %22 = load i32, ptr %21, align 8
  %23 = zext i32 %22 to i64
  %24 = and i64 %23, 524288
  %25 = icmp ne i64 %24, 0
  br i1 %25, label %26, label %27

26:                                               ; preds = %19
  store i32 1, ptr %3, align 4
  store i32 1, ptr %10, align 4
  br label %226

27:                                               ; preds = %19, %2
  %28 = load ptr, ptr %5, align 8
  %29 = icmp ne ptr %28, null
  br i1 %29, label %30, label %36

30:                                               ; preds = %27
  %31 = load ptr, ptr %9, align 8
  %32 = getelementptr inbounds nuw %struct.job_record, ptr %31, i32 0, i32 49
  %33 = load i32, ptr %32, align 8
  %34 = icmp ne i32 %33, 0
  br i1 %34, label %35, label %36

35:                                               ; preds = %30
  store i32 0, ptr %3, align 4
  store i32 1, ptr %10, align 4
  br label %226

36:                                               ; preds = %30, %27
  %37 = load ptr, ptr %9, align 8
  %38 = getelementptr inbounds nuw %struct.job_record, ptr %37, i32 0, i32 60
  %39 = load i32, ptr %38, align 8
  %40 = zext i32 %39 to i64
  %41 = and i64 %40, 32768
  %42 = icmp ne i64 %41, 0
  br i1 %42, label %43, label %69

43:                                               ; preds = %36
  %44 = call i32 @get_agent_count()
  %45 = icmp sle i32 %44, 50
  br i1 %45, label %46, label %47

46:                                               ; preds = %43
  br i1 false, label %69, label %48

47:                                               ; preds = %43
  br i1 true, label %69, label %48

48:                                               ; preds = %47, %46
  %49 = load i64, ptr %8, align 8
  %50 = load i16, ptr getelementptr inbounds nuw (%struct.slurm_conf_t, ptr @slurm_conf, i32 0, i32 89), align 2
  %51 = zext i16 %50 to i32
  %52 = load i16, ptr getelementptr inbounds nuw (%struct.slurm_conf_t, ptr @slurm_conf, i32 0, i32 110), align 8
  %53 = zext i16 %52 to i32
  %54 = mul nsw i32 2, %53
  %55 = add nsw i32 %51, %54
  %56 = sext i32 %55 to i64
  %57 = sub nsw i64 %49, %56
  store i64 %57, ptr %6, align 8
  %58 = load ptr, ptr %9, align 8
  %59 = getelementptr inbounds nuw %struct.job_record, ptr %58, i32 0, i32 132
  %60 = load i64, ptr %59, align 8
  %61 = load i64, ptr %6, align 8
  %62 = icmp slt i64 %60, %61
  br i1 %62, label %63, label %68

63:                                               ; preds = %48
  %64 = load i64, ptr %8, align 8
  %65 = load ptr, ptr %9, align 8
  %66 = getelementptr inbounds nuw %struct.job_record, ptr %65, i32 0, i32 132
  store i64 %64, ptr %66, align 8
  %67 = load ptr, ptr %9, align 8
  call void @re_kill_job(ptr noundef %67)
  br label %68

68:                                               ; preds = %63, %48
  store i32 0, ptr %3, align 4
  store i32 1, ptr %10, align 4
  br label %226

69:                                               ; preds = %47, %46, %36
  %70 = load ptr, ptr %9, align 8
  %71 = getelementptr inbounds nuw %struct.job_record, ptr %70, i32 0, i32 34
  %72 = load i8, ptr %71, align 8, !range !8, !noundef !9
  %73 = trunc i8 %72 to i1
  br i1 %73, label %74, label %75

74:                                               ; preds = %69
  store i32 0, ptr %3, align 4
  store i32 1, ptr %10, align 4
  br label %226

75:                                               ; preds = %69
  %76 = load i32, ptr getelementptr inbounds nuw (%struct.slurm_conf_t, ptr @slurm_conf, i32 0, i32 106), align 8
  %77 = icmp eq i32 %76, 0
  br i1 %77, label %78, label %79

78:                                               ; preds = %75
  store i32 0, ptr %3, align 4
  store i32 1, ptr %10, align 4
  br label %226

79:                                               ; preds = %75
  %80 = load ptr, ptr @fed_mgr_fed_rec, align 8
  %81 = icmp ne ptr %80, null
  br i1 %81, label %82, label %125

82:                                               ; preds = %79
  %83 = load ptr, ptr %9, align 8
  %84 = getelementptr inbounds nuw %struct.job_record, ptr %83, i32 0, i32 39
  %85 = load ptr, ptr %84, align 8
  %86 = icmp ne ptr %85, null
  br i1 %86, label %87, label %125

87:                                               ; preds = %82
  %88 = load ptr, ptr %9, align 8
  %89 = call i32 @fed_mgr_is_origin_job(ptr noundef %88)
  %90 = icmp ne i32 %89, 0
  br i1 %90, label %125, label %91

91:                                               ; preds = %87
  call void @llvm.lifetime.start.p0(i64 4, ptr %11) #13
  %92 = load ptr, ptr %9, align 8
  %93 = getelementptr inbounds nuw %struct.job_record, ptr %92, i32 0, i32 53
  %94 = load i32, ptr %93, align 8
  %95 = call i32 @fed_mgr_get_cluster_id(i32 noundef %94)
  store i32 %95, ptr %11, align 4
  call void @llvm.lifetime.start.p0(i64 8, ptr %12) #13
  %96 = load i32, ptr %11, align 4
  %97 = call ptr @fed_mgr_get_cluster_by_id(i32 noundef %96)
  store ptr %97, ptr %12, align 8
  %98 = load ptr, ptr %12, align 8
  %99 = icmp ne ptr %98, null
  br i1 %99, label %100, label %121

100:                                              ; preds = %91
  %101 = load ptr, ptr %12, align 8
  %102 = getelementptr inbounds nuw %struct.slurmdb_cluster_rec, ptr %101, i32 0, i32 9
  %103 = getelementptr inbounds nuw %struct.slurmdb_cluster_fed_t, ptr %102, i32 0, i32 4
  %104 = load ptr, ptr %103, align 8
  %105 = icmp ne ptr %104, null
  br i1 %105, label %106, label %120

106:                                              ; preds = %100
  %107 = load ptr, ptr %12, align 8
  %108 = getelementptr inbounds nuw %struct.slurmdb_cluster_rec, ptr %107, i32 0, i32 9
  %109 = getelementptr inbounds nuw %struct.slurmdb_cluster_fed_t, ptr %108, i32 0, i32 4
  %110 = load ptr, ptr %109, align 8
  %111 = getelementptr inbounds nuw %struct.persist_conn_t, ptr %110, i32 0, i32 9
  %112 = load i32, ptr %111, align 4
  %113 = icmp eq i32 %112, -1
  br i1 %113, label %120, label %114

114:                                              ; preds = %106
  %115 = load ptr, ptr %12, align 8
  %116 = getelementptr inbounds nuw %struct.slurmdb_cluster_rec, ptr %115, i32 0, i32 9
  %117 = getelementptr inbounds nuw %struct.slurmdb_cluster_fed_t, ptr %116, i32 0, i32 7
  %118 = load i8, ptr %117, align 1, !range !8, !noundef !9
  %119 = trunc i8 %118 to i1
  br i1 %119, label %121, label %120

120:                                              ; preds = %114, %106, %100
  store i32 0, ptr %3, align 4
  store i32 1, ptr %10, align 4
  br label %122

121:                                              ; preds = %114, %91
  store i32 0, ptr %10, align 4
  br label %122

122:                                              ; preds = %121, %120
  call void @llvm.lifetime.end.p0(i64 8, ptr %12) #13
  call void @llvm.lifetime.end.p0(i64 4, ptr %11) #13
  %123 = load i32, ptr %10, align 4
  switch i32 %123, label %226 [
    i32 0, label %124
  ]

124:                                              ; preds = %122
  br label %125

125:                                              ; preds = %124, %87, %82, %79
  %126 = load i64, ptr %8, align 8
  %127 = load i32, ptr getelementptr inbounds nuw (%struct.slurm_conf_t, ptr @slurm_conf, i32 0, i32 106), align 8
  %128 = zext i32 %127 to i64
  %129 = sub nsw i64 %126, %128
  store i64 %129, ptr %7, align 8
  %130 = load ptr, ptr %9, align 8
  %131 = getelementptr inbounds nuw %struct.job_record, ptr %130, i32 0, i32 32
  %132 = load i64, ptr %131, align 8
  %133 = load i64, ptr %7, align 8
  %134 = icmp sgt i64 %132, %133
  br i1 %134, label %135, label %136

135:                                              ; preds = %125
  store i32 0, ptr %3, align 4
  store i32 1, ptr %10, align 4
  br label %226

136:                                              ; preds = %125
  %137 = load ptr, ptr %9, align 8
  %138 = getelementptr inbounds nuw %struct.job_record, ptr %137, i32 0, i32 60
  %139 = load i32, ptr %138, align 8
  %140 = and i32 %139, 255
  %141 = icmp ugt i32 %140, 2
  br i1 %141, label %142, label %149

142:                                              ; preds = %136
  %143 = load ptr, ptr %9, align 8
  %144 = getelementptr inbounds nuw %struct.job_record, ptr %143, i32 0, i32 60
  %145 = load i32, ptr %144, align 8
  %146 = zext i32 %145 to i64
  %147 = and i64 %146, 32768
  %148 = icmp eq i64 %147, 0
  br i1 %148, label %150, label %149

149:                                              ; preds = %142, %136
  store i32 0, ptr %3, align 4
  store i32 1, ptr %10, align 4
  br label %226

150:                                              ; preds = %142
  %151 = load ptr, ptr %9, align 8
  %152 = getelementptr inbounds nuw %struct.job_record, ptr %151, i32 0, i32 128
  %153 = load ptr, ptr %152, align 8
  %154 = icmp ne ptr %153, null
  br i1 %154, label %155, label %200

155:                                              ; preds = %150
  %156 = load ptr, ptr %9, align 8
  %157 = getelementptr inbounds nuw %struct.job_record, ptr %156, i32 0, i32 128
  %158 = load ptr, ptr %157, align 8
  %159 = call i32 @list_count(ptr noundef %158)
  %160 = icmp ne i32 %159, 0
  br i1 %160, label %161, label %200

161:                                              ; preds = %155
  br label %162

162:                                              ; preds = %161
  br label %163

163:                                              ; preds = %162
  %164 = call i32 @get_log_level()
  %165 = icmp sge i32 %164, 5
  br i1 %165, label %166, label %172

166:                                              ; preds = %163
  %167 = load ptr, ptr %9, align 8
  %168 = load ptr, ptr %9, align 8
  %169 = getelementptr inbounds nuw %struct.job_record, ptr %168, i32 0, i32 128
  %170 = load ptr, ptr %169, align 8
  %171 = call i32 @list_count(ptr noundef %170)
  call void (i32, ptr, ...) @log_var(i32 noundef 5, ptr noundef @.str.477, ptr noundef %167, i32 noundef %171)
  br label %172

172:                                              ; preds = %166, %163
  br label %173

173:                                              ; preds = %172
  br label %174

174:                                              ; preds = %173
  br label %175

175:                                              ; preds = %174
  br label %176

176:                                              ; preds = %175
  %177 = load i64, ptr %8, align 8
  %178 = sub nsw i64 %177, 2592000
  store i64 %178, ptr %7, align 8
  %179 = load ptr, ptr %9, align 8
  %180 = getelementptr inbounds nuw %struct.job_record, ptr %179, i32 0, i32 32
  %181 = load i64, ptr %180, align 8
  %182 = load i64, ptr %7, align 8
  %183 = icmp sle i64 %181, %182
  br i1 %183, label %184, label %199

184:                                              ; preds = %176
  br label %185

185:                                              ; preds = %184
  br label %186

186:                                              ; preds = %185
  %187 = call i32 @get_log_level()
  %188 = icmp sge i32 %187, 3
  br i1 %188, label %189, label %194

189:                                              ; preds = %186
  %190 = load ptr, ptr %9, align 8
  %191 = load ptr, ptr %9, align 8
  %192 = getelementptr inbounds nuw %struct.job_record, ptr %191, i32 0, i32 75
  %193 = load ptr, ptr %192, align 8
  call void (i32, ptr, ...) @log_var(i32 noundef 3, ptr noundef @.str.478, ptr noundef %190, ptr noundef %193)
  br label %194

194:                                              ; preds = %189, %186
  br label %195

195:                                              ; preds = %194
  br label %196

196:                                              ; preds = %195
  br label %197

197:                                              ; preds = %196
  br label %198

198:                                              ; preds = %197
  br label %225

199:                                              ; preds = %176
  store i32 0, ptr %3, align 4
  store i32 1, ptr %10, align 4
  br label %226

200:                                              ; preds = %155, %150
  %201 = load ptr, ptr %9, align 8
  %202 = getelementptr inbounds nuw %struct.job_record, ptr %201, i32 0, i32 9
  %203 = load ptr, ptr %202, align 8
  %204 = icmp ne ptr %203, null
  br i1 %204, label %205, label %219

205:                                              ; preds = %200
  %206 = load ptr, ptr %9, align 8
  %207 = getelementptr inbounds nuw %struct.job_record, ptr %206, i32 0, i32 9
  %208 = load ptr, ptr %207, align 8
  %209 = getelementptr inbounds nuw %struct.job_array_struct, ptr %208, i32 0, i32 5
  %210 = load i32, ptr %209, align 8
  %211 = icmp ne i32 %210, 0
  br i1 %211, label %217, label %212

212:                                              ; preds = %205
  %213 = load ptr, ptr %9, align 8
  %214 = getelementptr inbounds nuw %struct.job_record, ptr %213, i32 0, i32 7
  %215 = load i32, ptr %214, align 8
  %216 = call zeroext i1 @_test_job_array_purged(i32 noundef %215)
  br i1 %216, label %218, label %217

217:                                              ; preds = %212, %205
  store i32 0, ptr %3, align 4
  store i32 1, ptr %10, align 4
  br label %226

218:                                              ; preds = %212
  br label %219

219:                                              ; preds = %218, %200
  %220 = load ptr, ptr %9, align 8
  %221 = call i32 @bb_g_job_test_stage_out(ptr noundef %220)
  %222 = icmp ne i32 %221, 1
  br i1 %222, label %223, label %224

223:                                              ; preds = %219
  store i32 0, ptr %3, align 4
  store i32 1, ptr %10, align 4
  br label %226

224:                                              ; preds = %219
  br label %225

225:                                              ; preds = %224, %198
  store i32 1, ptr %3, align 4
  store i32 1, ptr %10, align 4
  br label %226

226:                                              ; preds = %225, %223, %217, %199, %149, %135, %122, %78, %74, %68, %35, %26
  call void @llvm.lifetime.end.p0(i64 8, ptr %9) #13
  call void @llvm.lifetime.end.p0(i64 8, ptr %8) #13
  call void @llvm.lifetime.end.p0(i64 8, ptr %7) #13
  call void @llvm.lifetime.end.p0(i64 8, ptr %6) #13
  %227 = load i32, ptr %3, align 4
  ret i32 %227
}