; Function Attrs: nounwind uwtable
define internal range(i32 0, 2) i32 @_list_find_job_old(ptr noundef %0, ptr noundef readnone captures(address_is_null) %1) #0 {
  %3 = tail call i64 @time(ptr noundef null) #27
  %4 = getelementptr inbounds nuw i8, ptr %0, i64 392
  %5 = load i32, ptr %4, align 8
  %6 = icmp eq i32 %5, -2
  br i1 %6, label %7, label %11

7:                                                ; preds = %2
  %8 = getelementptr inbounds nuw i8, ptr %0, i64 448
  %9 = load i32, ptr %8, align 8
  %10 = and i32 %9, 524288
  %.not = icmp eq i32 %10, 0
  br i1 %.not, label %11, label %107

11:                                               ; preds = %7, %2
  %.not45 = icmp eq ptr %1, null
  br i1 %.not45, label %15, label %12

12:                                               ; preds = %11
  %13 = getelementptr inbounds nuw i8, ptr %0, i64 360
  %14 = load i32, ptr %13, align 8
  %.not46 = icmp eq i32 %14, 0
  br i1 %.not46, label %15, label %107

15:                                               ; preds = %12, %11
  %16 = getelementptr inbounds nuw i8, ptr %0, i64 448
  %17 = load i32, ptr %16, align 8
  %18 = and i32 %17, 32768
  %.not47 = icmp eq i32 %18, 0
  br i1 %.not47, label %34, label %19

19:                                               ; preds = %15
  %20 = tail call i32 @get_agent_count() #27
  %21 = icmp slt i32 %20, 51
  br i1 %21, label %22, label %34

22:                                               ; preds = %19
  %23 = load i16, ptr getelementptr inbounds nuw (i8, ptr @slurm_conf, i64 606), align 2
  %24 = zext i16 %23 to i64
  %25 = load i16, ptr getelementptr inbounds nuw (i8, ptr @slurm_conf, i64 744), align 8
  %26 = zext i16 %25 to i64
  %27 = shl nuw nsw i64 %26, 1
  %28 = add nuw nsw i64 %27, %24
  %29 = sub i64 %3, %28
  %30 = getelementptr inbounds nuw i8, ptr %0, i64 968
  %31 = load i64, ptr %30, align 8
  %32 = icmp slt i64 %31, %29
  br i1 %32, label %33, label %107

33:                                               ; preds = %22
  store i64 %3, ptr %30, align 8
  tail call void @re_kill_job(ptr noundef nonnull %0) #27
  br label %107

34:                                               ; preds = %19, %15
  %35 = getelementptr inbounds nuw i8, ptr %0, i64 248
  %36 = load i8, ptr %35, align 8, !range !11, !noundef !12
  %37 = trunc nuw i8 %36 to i1
  %38 = load i32, ptr getelementptr inbounds nuw (i8, ptr @slurm_conf, i64 712), align 8
  %39 = icmp eq i32 %38, 0
  %or.cond61 = select i1 %37, i1 true, i1 %39
  br i1 %or.cond61, label %107, label %40

40:                                               ; preds = %34
  %41 = load ptr, ptr @fed_mgr_fed_rec, align 8
  %.not48 = icmp eq ptr %41, null
  br i1 %.not48, label %.critedge, label %42

42:                                               ; preds = %40
  %43 = getelementptr inbounds nuw i8, ptr %0, i64 280
  %44 = load ptr, ptr %43, align 8
  %.not49 = icmp eq ptr %44, null
  br i1 %.not49, label %.critedge, label %45

45:                                               ; preds = %42
  %46 = tail call i32 @fed_mgr_is_origin_job(ptr noundef nonnull %0) #27
  %.not50 = icmp eq i32 %46, 0
  br i1 %.not50, label %47, label %.critedge

47:                                               ; preds = %45
  %48 = load i32, ptr %4, align 8
  %49 = tail call i32 @fed_mgr_get_cluster_id(i32 noundef %48) #27
  %50 = tail call ptr @fed_mgr_get_cluster_by_id(i32 noundef %49) #27
  %.not51 = icmp eq ptr %50, null
  br i1 %.not51, label %.critedge, label %51

51:                                               ; preds = %47
  %52 = getelementptr inbounds nuw i8, ptr %50, i64 216
  %53 = load ptr, ptr %52, align 8
  %.not52 = icmp eq ptr %53, null
  br i1 %.not52, label %107, label %54

54:                                               ; preds = %51
  %55 = getelementptr inbounds nuw i8, ptr %53, i64 60
  %56 = load i32, ptr %55, align 4
  %57 = icmp eq i32 %56, -1
  br i1 %57, label %107, label %58

58:                                               ; preds = %54
  %59 = getelementptr inbounds nuw i8, ptr %50, i64 229
  %60 = load i8, ptr %59, align 1, !range !11, !noundef !12
  %61 = trunc nuw i8 %60 to i1
  br i1 %61, label %.critedge, label %107

.critedge:                                        ; preds = %47, %58, %45, %42, %40
  %62 = load i32, ptr getelementptr inbounds nuw (i8, ptr @slurm_conf, i64 712), align 8
  %63 = zext i32 %62 to i64
  %64 = sub nsw i64 %3, %63
  %65 = getelementptr inbounds nuw i8, ptr %0, i64 232
  %66 = load i64, ptr %65, align 8
  %67 = icmp sgt i64 %66, %64
  br i1 %67, label %107, label %68

68:                                               ; preds = %.critedge
  %69 = load i32, ptr %16, align 8
  %70 = and i32 %69, 255
  %71 = icmp samesign ugt i32 %70, 2
  %72 = and i32 %69, 32768
  %73 = icmp eq i32 %72, 0
  %or.cond = and i1 %71, %73
  br i1 %or.cond, label %74, label %107

74:                                               ; preds = %68
  %75 = getelementptr inbounds nuw i8, ptr %0, i64 936
  %76 = load ptr, ptr %75, align 8
  %.not53 = icmp eq ptr %76, null
  br i1 %.not53, label %94, label %77

77:                                               ; preds = %74
  %78 = tail call i32 @list_count(ptr noundef nonnull %76) #27
  %.not54 = icmp eq i32 %78, 0
  br i1 %.not54, label %94, label %79

79:                                               ; preds = %77
  %80 = tail call i32 @get_log_level() #27
  %81 = icmp sgt i32 %80, 4
  br i1 %81, label %82, label %85

82:                                               ; preds = %79
  %83 = load ptr, ptr %75, align 8
  %84 = tail call i32 @list_count(ptr noundef %83) #27
  tail call void (i32, ptr, ...) @log_var(i32 noundef 5, ptr noundef nonnull @.str.477, ptr noundef nonnull %0, i32 noundef %84) #27
  br label %85

85:                                               ; preds = %82, %79
  %86 = add nsw i64 %3, -2592000
  %87 = load i64, ptr %65, align 8
  %.not58 = icmp sgt i64 %87, %86
  br i1 %.not58, label %107, label %88

88:                                               ; preds = %85
  %89 = tail call i32 @get_log_level() #27
  %90 = icmp sgt i32 %89, 2
  br i1 %90, label %91, label %106

91:                                               ; preds = %88
  %92 = getelementptr inbounds nuw i8, ptr %0, i64 568
  %93 = load ptr, ptr %92, align 8
  tail call void (i32, ptr, ...) @log_var(i32 noundef 3, ptr noundef nonnull @.str.478, ptr noundef nonnull %0, ptr noundef %93) #27
  br label %106

94:                                               ; preds = %77, %74
  %95 = getelementptr inbounds nuw i8, ptr %0, i64 56
  %96 = load ptr, ptr %95, align 8
  %.not55 = icmp eq ptr %96, null
  br i1 %.not55, label %104, label %97

97:                                               ; preds = %94
  %98 = getelementptr inbounds nuw i8, ptr %96, i64 32
  %99 = load i32, ptr %98, align 8
  %.not56 = icmp eq i32 %99, 0
  br i1 %.not56, label %100, label %107

100:                                              ; preds = %97
  %101 = getelementptr inbounds nuw i8, ptr %0, i64 48
  %102 = load i32, ptr %101, align 8
  %103 = tail call fastcc zeroext i1 @_test_job_array_purged(i32 noundef %102)
  br i1 %103, label %104, label %107

104:                                              ; preds = %100, %94
  %105 = tail call i32 @bb_g_job_test_stage_out(ptr noundef nonnull %0) #27
  %.not57 = icmp eq i32 %105, 1
  br i1 %.not57, label %106, label %107

106:                                              ; preds = %104, %88, %91
  br label %107

107:                                              ; preds = %104, %97, %100, %85, %68, %.critedge, %58, %54, %51, %34, %22, %33, %12, %7, %106
  %.0 = phi i32 [ 1, %106 ], [ 1, %7 ], [ 0, %12 ], [ 0, %33 ], [ 0, %22 ], [ 0, %34 ], [ 0, %51 ], [ 0, %54 ], [ 0, %58 ], [ 0, %.critedge ], [ 0, %68 ], [ 0, %85 ], [ 0, %100 ], [ 0, %97 ], [ 0, %104 ]
  ret i32 %.0
}